target datalayout = "e-m:e-p270:32:32-p271:32:32-p272:64:64-i64:64-i128:128-f80:128-n8:16:32:64-S128"
target triple = "x86_64-pc-linux-gnu"

%class.AccessFlags = type { i32 }
%class.fieldDescriptor = type { %class.FieldInfo, %class.constantPoolHandle }
%class.FieldInfo = type <{ i32, i16, i16, i32, %class.AccessFlags, %"class.FieldInfo::FieldFlags", i16, i16, i16, [2 x i8] }>
%"class.FieldInfo::FieldFlags" = type { i32 }
%class.constantPoolHandle = type { ptr, ptr }

; Function Attrs: mustprogress nounwind uwtable
define linkonce_odr hidden void @_ZN9FieldInfo10FieldFlagsC2Ej(ptr noundef nonnull align 4 dereferenceable(4) %0, i32 noundef %1) unnamed_addr #1 comdat align 2 {
  %3 = alloca ptr, align 8
  %4 = alloca i32, align 4
  store ptr %0, ptr %3, align 8
  store i32 %1, ptr %4, align 4
  %5 = load ptr, ptr %3, align 8
  %6 = load i32, ptr %4, align 4
  %7 = getelementptr inbounds %"class.FieldInfo::FieldFlags", ptr %5, i32 0, i32 0
  store i32 %6, ptr %7, align 4
  ret void
}

; Function Attrs: mustprogress nounwind uwtable
define linkonce_odr hidden void @_ZN11AccessFlagsC2Ei(ptr noundef nonnull align 4 dereferenceable(4) %0, i32 noundef %1) unnamed_addr #1 comdat align 2 {
  %3 = alloca ptr, align 8
  %4 = alloca i32, align 4
  store ptr %0, ptr %3, align 8
  store i32 %1, ptr %4, align 4
  %5 = load ptr, ptr %3, align 8
  %6 = getelementptr inbounds %class.AccessFlags, ptr %5, i32 0, i32 0
  %7 = load i32, ptr %4, align 4
  store i32 %7, ptr %6, align 4
  ret void
}

; Function Attrs: mustprogress nounwind uwtable
define linkonce_odr hidden noundef i32 @_ZNK9FieldInfo6offsetEv(ptr noundef nonnull align 4 dereferenceable(26) %0) #1 comdat align 2 {
  %2 = alloca ptr, align 8
  store ptr %0, ptr %2, align 8
  %3 = load ptr, ptr %2, align 8
  %4 = getelementptr inbounds %class.FieldInfo, ptr %3, i32 0, i32 3
  %5 = load i32, ptr %4, align 4
  ret i32 %5
}

; Function Attrs: mustprogress nounwind uwtable
define linkonce_odr hidden void @_ZNK15fieldDescriptor5fieldEv(ptr dead_on_unwind noalias writable sret(%class.FieldInfo) align 4 %0, ptr noundef nonnull align 8 dereferenceable(48) %1) #1 comdat align 2 {
  %3 = alloca ptr, align 8
  store ptr %1, ptr %3, align 8
  %4 = load ptr, ptr %3, align 8
  %5 = getelementptr inbounds %class.fieldDescriptor, ptr %4, i32 0, i32 0
  call void @llvm.memcpy.p0.p0.i64(ptr align 4 %0, ptr align 8 %5, i64 28, i1 false)
  ret void
}

; Function Attrs: mustprogress nounwind uwtable
define linkonce_odr hidden noundef ptr @_ZN13InstanceKlass4castEPK5Klass(ptr noundef %0) #1 comdat align 2 {
  %2 = alloca ptr, align 8
  store ptr %0, ptr %2, align 8
  %3 = load ptr, ptr %2, align 8
  ret ptr %3
}

; Function Attrs: mustprogress nounwind uwtable
define linkonce_odr hidden void @_ZN18constantPoolHandleC2Ev(ptr noundef nonnull align 8 dereferenceable(16) %0) unnamed_addr #1 comdat align 2 {
  %2 = alloca ptr, align 8
  store ptr %0, ptr %2, align 8
  %3 = load ptr, ptr %2, align 8
  %4 = getelementptr inbounds %class.constantPoolHandle, ptr %3, i32 0, i32 0
  store ptr null, ptr %4, align 8
  %5 = getelementptr inbounds %class.constantPoolHandle, ptr %3, i32 0, i32 1
  store ptr null, ptr %5, align 8
  ret void
}

; Function Attrs: mustprogress nounwind uwtable
define linkonce_odr hidden void @_ZN9FieldInfoC2Ev(ptr noundef nonnull align 4 dereferenceable(26) %0) unnamed_addr #1 comdat align 2 {
  %2 = alloca ptr, align 8
  store ptr %0, ptr %2, align 8
  %3 = load ptr, ptr %2, align 8
  %4 = getelementptr inbounds %class.FieldInfo, ptr %3, i32 0, i32 1
  store i16 0, ptr %4, align 4
  %5 = getelementptr inbounds %class.FieldInfo, ptr %3, i32 0, i32 2
  store i16 0, ptr %5, align 2
  %6 = getelementptr inbounds %class.FieldInfo, ptr %3, i32 0, i32 3
  store i32 0, ptr %6, align 4
  %7 = getelementptr inbounds %class.FieldInfo, ptr %3, i32 0, i32 4
  call void @_ZN11AccessFlagsC2Ei(ptr noundef nonnull align 4 dereferenceable(4) %7, i32 noundef 0)
  %8 = getelementptr inbounds %class.FieldInfo, ptr %3, i32 0, i32 5
  call void @_ZN9FieldInfo10FieldFlagsC2Ej(ptr noundef nonnull align 4 dereferenceable(4) %8, i32 noundef 0)
  %9 = getelementptr inbounds %class.FieldInfo, ptr %3, i32 0, i32 6
  store i16 0, ptr %9, align 4
  %10 = getelementptr inbounds %class.FieldInfo, ptr %3, i32 0, i32 7
  store i16 0, ptr %10, align 2
  %11 = getelementptr inbounds %class.FieldInfo, ptr %3, i32 0, i32 8
  store i16 0, ptr %11, align 4
  ret void
}

; Function Attrs: mustprogress nounwind uwtable
define linkonce_odr hidden void @_ZN15fieldDescriptorD2Ev(ptr noundef nonnull align 8 dereferenceable(48) %0) unnamed_addr #1 comdat align 2 {
  %2 = alloca ptr, align 8
  store ptr %0, ptr %2, align 8
  %3 = load ptr, ptr %2, align 8
  %4 = getelementptr inbounds %class.fieldDescriptor, ptr %3, i32 0, i32 1
  call void @_ZN18constantPoolHandleD1Ev(ptr noundef nonnull align 8 dereferenceable(16) %4) #9
  ret void
}

; Function Attrs: mustprogress nounwind uwtable
define linkonce_odr hidden noundef i32 @_ZNK15fieldDescriptor6offsetEv(ptr noundef nonnull align 8 dereferenceable(48) %0) #1 comdat align 2 {
  %2 = alloca ptr, align 8
  %3 = alloca %class.FieldInfo, align 4
  store ptr %0, ptr %2, align 8
  %4 = load ptr, ptr %2, align 8
  call void @_ZNK15fieldDescriptor5fieldEv(ptr dead_on_unwind writable sret(%class.FieldInfo) align 4 %3, ptr noundef nonnull align 8 dereferenceable(48) %4)
  %5 = call noundef i32 @_ZNK9FieldInfo6offsetEv(ptr noundef nonnull align 4 dereferenceable(26) %3)
  ret i32 %5
}

; Function Attrs: mustprogress nounwind uwtable
define internal noundef zeroext i1 @_ZL10find_fieldPK13InstanceKlassP6SymbolS3_P15fieldDescriptorbb(ptr noundef %0, ptr noundef %1, ptr noundef %2, ptr noundef %3, i1 noundef zeroext %4, i1 noundef zeroext %5) #1 {
  %7 = alloca i1, align 1
  %8 = alloca ptr, align 8
  %9 = alloca ptr, align 8
  %10 = alloca ptr, align 8
  %11 = alloca ptr, align 8
  %12 = alloca i8, align 1
  %13 = alloca i8, align 1
  store ptr %0, ptr %8, align 8
  store ptr %1, ptr %9, align 8
  store ptr %2, ptr %10, align 8
  store ptr %3, ptr %11, align 8
  %14 = zext i1 %4 to i8
  store i8 %14, ptr %12, align 1
  %15 = zext i1 %5 to i8
  store i8 %15, ptr %13, align 1
  %16 = load i8, ptr %13, align 1
  %17 = trunc i8 %16 to i1
  br i1 %17, label %21, label %18

18:                                               ; preds = %6
  %19 = load i8, ptr %12, align 1
  %20 = trunc i8 %19 to i1
  br i1 %20, label %21, label %30

21:                                               ; preds = %18, %6
  %22 = load ptr, ptr %8, align 8
  %23 = load ptr, ptr %9, align 8
  %24 = load ptr, ptr %10, align 8
  %25 = load i8, ptr %12, align 1
  %26 = trunc i8 %25 to i1
  %27 = load ptr, ptr %11, align 8
  %28 = call noundef ptr @_ZNK13InstanceKlass10find_fieldEP6SymbolS1_bP15fieldDescriptor(ptr noundef nonnull align 8 dereferenceable(464) %22, ptr noundef %23, ptr noundef %24, i1 noundef zeroext %26, ptr noundef %27)
  %29 = icmp ne ptr %28, null
  store i1 %29, ptr %7, align 1
  br label %36

30:                                               ; preds = %18
  %31 = load ptr, ptr %8, align 8
  %32 = load ptr, ptr %9, align 8
  %33 = load ptr, ptr %10, align 8
  %34 = load ptr, ptr %11, align 8
  %35 = call noundef zeroext i1 @_ZNK13InstanceKlass16find_local_fieldEP6SymbolS1_P15fieldDescriptor(ptr noundef nonnull align 8 dereferenceable(464) %31, ptr noundef %32, ptr noundef %33, ptr noundef %34)
  store i1 %35, ptr %7, align 1
  br label %36

36:                                               ; preds = %30, %21
  %37 = load i1, ptr %7, align 1
  ret i1 %37
}

; Function Attrs: mustprogress nounwind uwtable
define linkonce_odr hidden noundef ptr @_ZN13InstanceKlass4castEP5Klass(ptr noundef %0) #1 comdat align 2 {
  %2 = alloca ptr, align 8
  store ptr %0, ptr %2, align 8
  %3 = load ptr, ptr %2, align 8
  %4 = call noundef ptr @_ZN13InstanceKlass4castEPK5Klass(ptr noundef %3)
  ret ptr %4
}

; Function Attrs: mustprogress nounwind uwtable
define linkonce_odr hidden void @_ZN15fieldDescriptorC2Ev(ptr noundef nonnull align 8 dereferenceable(48) %0) unnamed_addr #1 comdat align 2 {
  %2 = alloca ptr, align 8
  store ptr %0, ptr %2, align 8
  %3 = load ptr, ptr %2, align 8
  %4 = getelementptr inbounds %class.fieldDescriptor, ptr %3, i32 0, i32 0
  call void @_ZN9FieldInfoC2Ev(ptr noundef nonnull align 4 dereferenceable(26) %4)
  %5 = getelementptr inbounds %class.fieldDescriptor, ptr %3, i32 0, i32 1
  call void @_ZN18constantPoolHandleC2Ev(ptr noundef nonnull align 8 dereferenceable(16) %5)
  ret void
}

; Function Attrs: mustprogress nounwind uwtable
define hidden noundef zeroext i1 @_ZN14JfrJavaSupport20compute_field_offsetERiP5KlassP6SymbolS4_bb(ptr noundef nonnull align 4 dereferenceable(4) %0, ptr noundef %1, ptr noundef %2, ptr noundef %3, i1 noundef zeroext %4, i1 noundef zeroext %5) #1 align 2 {
  %7 = alloca i1, align 1
  %8 = alloca ptr, align 8
  %9 = alloca ptr, align 8
  %10 = alloca ptr, align 8
  %11 = alloca ptr, align 8
  %12 = alloca i8, align 1
  %13 = alloca i8, align 1
  %14 = alloca %class.fieldDescriptor, align 8
  %15 = alloca ptr, align 8
  %16 = alloca i32, align 4
  store ptr %0, ptr %8, align 8
  store ptr %1, ptr %9, align 8
  store ptr %2, ptr %10, align 8
  store ptr %3, ptr %11, align 8
  %17 = zext i1 %4 to i8
  store i8 %17, ptr %12, align 1
  %18 = zext i1 %5 to i8
  store i8 %18, ptr %13, align 1
  call void @_ZN15fieldDescriptorC2Ev(ptr noundef nonnull align 8 dereferenceable(48) %14)
  %19 = load ptr, ptr %9, align 8
  %20 = call noundef ptr @_ZN13InstanceKlass4castEP5Klass(ptr noundef %19)
  store ptr %20, ptr %15, align 8
  %21 = load ptr, ptr %15, align 8
  %22 = load ptr, ptr %10, align 8
  %23 = load ptr, ptr %11, align 8
  %24 = load i8, ptr %12, align 1
  %25 = trunc i8 %24 to i1
  %26 = load i8, ptr %13, align 1
  %27 = trunc i8 %26 to i1
  %28 = call noundef zeroext i1 @_ZL10find_fieldPK13InstanceKlassP6SymbolS3_P15fieldDescriptorbb(ptr noundef %21, ptr noundef %22, ptr noundef %23, ptr noundef %14, i1 noundef zeroext %25, i1 noundef zeroext %27)
  br i1 %28, label %30, label %29

29:                                               ; preds = %6
  store i1 false, ptr %7, align 1
  store i32 1, ptr %16, align 4
  br label %33

30:                                               ; preds = %6
  %31 = call noundef i32 @_ZNK15fieldDescriptor6offsetEv(ptr noundef nonnull align 8 dereferenceable(48) %14)
  %32 = load ptr, ptr %8, align 8
  store i32 %31, ptr %32, align 4
  store i1 true, ptr %7, align 1
  store i32 1, ptr %16, align 4
  br label %33

33:                                               ; preds = %30, %29
  call void @_ZN15fieldDescriptorD2Ev(ptr noundef nonnull align 8 dereferenceable(48) %14) #9
  %34 = load i1, ptr %7, align 1
  ret i1 %34
}