; Function Attrs: mustprogress nounwind uwtable
define hidden noundef zeroext i1 @_ZN14JfrJavaSupport20compute_field_offsetERiP5KlassP6SymbolS4_bb(ptr nocapture noundef nonnull writeonly align 4 dereferenceable(4) %0, ptr noundef %1, ptr noundef %2, ptr noundef %3, i1 noundef zeroext %4, i1 noundef zeroext %5) local_unnamed_addr #0 align 2 {
  %7 = alloca %class.fieldDescriptor, align 8
  %8 = getelementptr inbounds i8, ptr %7, i64 4
  call void @llvm.memset.p0.i64(ptr noundef nonnull align 4 dereferenceable(22) %8, i8 0, i64 22, i1 false)
  %9 = getelementptr inbounds i8, ptr %7, i64 32
  call void @llvm.memset.p0.i64(ptr noundef nonnull align 8 dereferenceable(16) %9, i8 0, i64 16, i1 false)
  %brmerge.i = or i1 %4, %5
  br i1 %brmerge.i, label %10, label %_ZL10find_fieldPK13InstanceKlassP6SymbolS3_P15fieldDescriptorbb.exit

10:                                               ; preds = %6
  %11 = call noundef ptr @_ZNK13InstanceKlass10find_fieldEP6SymbolS1_bP15fieldDescriptor(ptr noundef nonnull align 8 dereferenceable(464) %1, ptr noundef %2, ptr noundef %3, i1 noundef zeroext %4, ptr noundef nonnull %7) #13
  %.not = icmp eq ptr %11, null
  br i1 %.not, label %14, label %13

_ZL10find_fieldPK13InstanceKlassP6SymbolS3_P15fieldDescriptorbb.exit: ; preds = %6
  %12 = call noundef zeroext i1 @_ZNK13InstanceKlass16find_local_fieldEP6SymbolS1_P15fieldDescriptor(ptr noundef nonnull align 8 dereferenceable(464) %1, ptr noundef %2, ptr noundef %3, ptr noundef nonnull %7) #13
  br i1 %12, label %13, label %14

13:                                               ; preds = %10, %_ZL10find_fieldPK13InstanceKlassP6SymbolS3_P15fieldDescriptorbb.exit
  %.sroa.1.0..sroa_idx.i = getelementptr inbounds i8, ptr %7, i64 8
  %.sroa.1.0.copyload.i = load i32, ptr %.sroa.1.0..sroa_idx.i, align 8
  store i32 %.sroa.1.0.copyload.i, ptr %0, align 4
  br label %14

14:                                               ; preds = %10, %_ZL10find_fieldPK13InstanceKlassP6SymbolS3_P15fieldDescriptorbb.exit, %13
  %.0.i7 = phi i1 [ false, %10 ], [ false, %_ZL10find_fieldPK13InstanceKlassP6SymbolS3_P15fieldDescriptorbb.exit ], [ true, %13 ]
  call void @_ZN18constantPoolHandleD1Ev(ptr noundef nonnull align 8 dereferenceable(16) %9) #13
  ret i1 %.0.i7
}